; Function Attrs: mustprogress uwtable
define noundef i32 @proj_angular_input(ptr noundef %0, i32 noundef %1) local_unnamed_addr #1 {
  %3 = icmp eq i32 %1, 1
  br i1 %3, label %4, label %6

4:                                                ; preds = %2
  %5 = tail call noundef i32 @_Z7pj_leftP8PJconsts(ptr noundef %0)
  br label %8

6:                                                ; preds = %2
  %7 = tail call noundef i32 @_Z8pj_rightP8PJconsts(ptr noundef %0)
  br label %8

8:                                                ; preds = %6, %4
  %.0.in.in = phi i32 [ %5, %4 ], [ %7, %6 ]
  %.0.in = icmp eq i32 %.0.in.in, 4
  %.0 = zext i1 %.0.in to i32
  ret i32 %.0
}